; Function Attrs: nounwind uwtable
define dso_local { ptr, ptr } @gen_op_var_fresh(i32 noundef %0, ptr noundef readonly captures(none) %1) local_unnamed_addr #1 {
  %3 = tail call ptr @jv_mem_alloc(i64 noundef 160) #17
  %4 = getelementptr inbounds nuw i8, ptr %3, i64 16
  tail call void @llvm.memset.p0.i64(ptr noundef nonnull align 8 dereferenceable(16) %3, i8 0, i64 16, i1 false)
  store i32 %0, ptr %4, align 8, !tbaa !25
  %5 = getelementptr inbounds nuw i8, ptr %3, i64 152
  store i32 -1, ptr %5, align 8, !tbaa !26
  %6 = getelementptr inbounds nuw i8, ptr %3, i64 80
  %7 = getelementptr inbounds nuw i8, ptr %3, i64 104
  tail call void @llvm.memset.p0.i64(ptr noundef nonnull align 8 dereferenceable(24) %6, i8 0, i64 24, i1 false)
  store i32 -1, ptr %7, align 8, !tbaa !27
  %8 = getelementptr inbounds nuw i8, ptr %3, i64 108
  store i32 -1, ptr %8, align 4, !tbaa !28
  %9 = getelementptr inbounds nuw i8, ptr %3, i64 112
  %10 = getelementptr inbounds nuw i8, ptr %3, i64 72
  tail call void @llvm.memset.p0.i64(ptr noundef nonnull align 8 dereferenceable(32) %9, i8 0, i64 32, i1 false)
  store i64 -1, ptr %10, align 8
  %11 = getelementptr inbounds nuw i8, ptr %3, i64 64
  store ptr null, ptr %11, align 8, !tbaa !21
  %12 = tail call noalias ptr @strdup(ptr noundef readonly %1) #17
  %13 = getelementptr inbounds nuw i8, ptr %3, i64 88
  store ptr %12, ptr %13, align 8, !tbaa !30
  %14 = getelementptr inbounds nuw i8, ptr %3, i64 96
  store i32 1, ptr %14, align 8, !tbaa !31
  %.fca.0.insert.i.i = insertvalue { ptr, ptr } poison, ptr %3, 0
  %.fca.1.insert.i.i = insertvalue { ptr, ptr } %.fca.0.insert.i.i, ptr %3, 1
  store ptr %3, ptr %6, align 8, !tbaa !33
  ret { ptr, ptr } %.fca.1.insert.i.i
}